target datalayout = "e-m:e-p270:32:32-p271:32:32-p272:64:64-i64:64-i128:128-f80:128-n8:16:32:64-S128"
target triple = "x86_64-pc-linux-gnu"

%struct.FunctionCallInfoBaseData = type { ptr, ptr, ptr, i32, i8, i16, [0 x %struct.NullableDatum] }
%struct.NullableDatum = type { i64, i8 }
%struct.VacAttrStats = type { i32, i32, i32, ptr, i32, ptr, ptr, i32, ptr, i8, float, i32, float, [5 x i16], [5 x i32], [5 x i32], [5 x i32], [5 x ptr], [5 x i32], [5 x ptr], [5 x i32], [5 x i16], [5 x i8], [5 x i8], i32, ptr, ptr, ptr, ptr, i32 }

@default_statistics_target = external global i32, align 4

; Function Attrs: inlinehint nounwind uwtable
define internal i64 @BoolGetDatum(i1 noundef zeroext %0) #2 {
  %2 = alloca i8, align 1
  %3 = zext i1 %0 to i8
  store i8 %3, ptr %2, align 1
  %4 = load i8, ptr %2, align 1, !range !4, !noundef !5
  %5 = trunc i8 %4 to i1
  %6 = select i1 %5, i32 1, i32 0
  %7 = sext i32 %6 to i64
  ret i64 %7
}

; Function Attrs: inlinehint nounwind uwtable
define internal ptr @DatumGetPointer(i64 noundef %0) #2 {
  %2 = alloca i64, align 8
  store i64 %0, ptr %2, align 8
  %3 = load i64, ptr %2, align 8
  %4 = inttoptr i64 %3 to ptr
  ret ptr %4
}

; Function Attrs: nounwind uwtable
define dso_local i64 @multirange_typanalyze(ptr noundef %0) #0 {
  %2 = alloca ptr, align 8
  %3 = alloca ptr, align 8
  %4 = alloca ptr, align 8
  store ptr %0, ptr %2, align 8
  call void @llvm.lifetime.start.p0(i64 8, ptr %3) #5
  %5 = load ptr, ptr %2, align 8
  %6 = getelementptr inbounds nuw %struct.FunctionCallInfoBaseData, ptr %5, i32 0, i32 6
  %7 = getelementptr inbounds [0 x %struct.NullableDatum], ptr %6, i64 0, i64 0
  %8 = getelementptr inbounds nuw %struct.NullableDatum, ptr %7, i32 0, i32 0
  %9 = load i64, ptr %8, align 8
  %10 = call ptr @DatumGetPointer(i64 noundef %9)
  store ptr %10, ptr %3, align 8
  call void @llvm.lifetime.start.p0(i64 8, ptr %4) #5
  %11 = load ptr, ptr %2, align 8
  %12 = load ptr, ptr %3, align 8
  %13 = getelementptr inbounds nuw %struct.VacAttrStats, ptr %12, i32 0, i32 1
  %14 = load i32, ptr %13, align 4
  %15 = call i32 @getBaseType(i32 noundef %14)
  %16 = call ptr @multirange_get_typcache(ptr noundef %11, i32 noundef %15)
  store ptr %16, ptr %4, align 8
  %17 = load ptr, ptr %3, align 8
  %18 = getelementptr inbounds nuw %struct.VacAttrStats, ptr %17, i32 0, i32 0
  %19 = load i32, ptr %18, align 8
  %20 = icmp slt i32 %19, 0
  br i1 %20, label %21, label %25

21:                                               ; preds = %1
  %22 = load i32, ptr @default_statistics_target, align 4
  %23 = load ptr, ptr %3, align 8
  %24 = getelementptr inbounds nuw %struct.VacAttrStats, ptr %23, i32 0, i32 0
  store i32 %22, ptr %24, align 8
  br label %25

25:                                               ; preds = %21, %1
  %26 = load ptr, ptr %3, align 8
  %27 = getelementptr inbounds nuw %struct.VacAttrStats, ptr %26, i32 0, i32 6
  store ptr @compute_range_stats, ptr %27, align 8
  %28 = load ptr, ptr %4, align 8
  %29 = load ptr, ptr %3, align 8
  %30 = getelementptr inbounds nuw %struct.VacAttrStats, ptr %29, i32 0, i32 8
  store ptr %28, ptr %30, align 8
  %31 = load ptr, ptr %3, align 8
  %32 = getelementptr inbounds nuw %struct.VacAttrStats, ptr %31, i32 0, i32 0
  %33 = load i32, ptr %32, align 8
  %34 = mul i32 300, %33
  %35 = load ptr, ptr %3, align 8
  %36 = getelementptr inbounds nuw %struct.VacAttrStats, ptr %35, i32 0, i32 7
  store i32 %34, ptr %36, align 8
  %37 = call i64 @BoolGetDatum(i1 noundef zeroext true)
  call void @llvm.lifetime.end.p0(i64 8, ptr %4) #5
  call void @llvm.lifetime.end.p0(i64 8, ptr %3) #5
  ret i64 %37
}