; Function Attrs: nounwind uwtable
define dso_local noundef i64 @multirange_typanalyze(ptr noundef %0) local_unnamed_addr #0 {
  %2 = getelementptr inbounds nuw i8, ptr %0, i64 32
  %3 = load i64, ptr %2, align 8
  %4 = inttoptr i64 %3 to ptr
  %5 = getelementptr inbounds nuw i8, ptr %4, i64 4
  %6 = load i32, ptr %5, align 4
  %7 = tail call i32 @getBaseType(i32 noundef %6) #5
  %8 = tail call ptr @multirange_get_typcache(ptr noundef %0, i32 noundef %7) #5
  %9 = load i32, ptr %4, align 8
  %10 = icmp slt i32 %9, 0
  br i1 %10, label %11, label %13

11:                                               ; preds = %1
  %12 = load i32, ptr @default_statistics_target, align 4
  store i32 %12, ptr %4, align 8
  br label %13

13:                                               ; preds = %11, %1
  %14 = phi i32 [ %12, %11 ], [ %9, %1 ]
  %15 = getelementptr inbounds nuw i8, ptr %4, i64 40
  store ptr @compute_range_stats, ptr %15, align 8
  %16 = getelementptr inbounds nuw i8, ptr %4, i64 56
  store ptr %8, ptr %16, align 8
  %17 = mul i32 %14, 300
  %18 = getelementptr inbounds nuw i8, ptr %4, i64 48
  store i32 %17, ptr %18, align 8
  ret i64 1
}